target datalayout = "e-m:e-p270:32:32-p271:32:32-p272:64:64-i64:64-i128:128-f80:128-n8:16:32:64-S128"
target triple = "x86_64-pc-linux-gnu"

; Function Attrs: nounwind uwtable
define hidden i32 @mbedtls_ecc_group_from_psa(i8 noundef zeroext %0, i64 noundef %1) #0 {
  %3 = alloca i32, align 4
  %4 = alloca i8, align 1
  %5 = alloca i64, align 8
  store i8 %0, ptr %4, align 1, !tbaa !19
  store i64 %1, ptr %5, align 8, !tbaa !9
  %6 = load i8, ptr %4, align 1, !tbaa !19
  %7 = zext i8 %6 to i32
  switch i32 %7, label %32 [
    i32 18, label %8
    i32 48, label %16
    i32 65, label %22
    i32 23, label %27
  ]

8:                                                ; preds = %2
  %9 = load i64, ptr %5, align 8, !tbaa !9
  switch i64 %9, label %15 [
    i64 192, label %10
    i64 224, label %11
    i64 256, label %12
    i64 384, label %13
    i64 521, label %14
  ]

10:                                               ; preds = %8
  store i32 1, ptr %3, align 4
  br label %33

11:                                               ; preds = %8
  store i32 2, ptr %3, align 4
  br label %33

12:                                               ; preds = %8
  store i32 3, ptr %3, align 4
  br label %33

13:                                               ; preds = %8
  store i32 4, ptr %3, align 4
  br label %33

14:                                               ; preds = %8
  store i32 5, ptr %3, align 4
  br label %33

15:                                               ; preds = %8
  br label %32

16:                                               ; preds = %2
  %17 = load i64, ptr %5, align 8, !tbaa !9
  switch i64 %17, label %21 [
    i64 256, label %18
    i64 384, label %19
    i64 512, label %20
  ]

18:                                               ; preds = %16
  store i32 6, ptr %3, align 4
  br label %33

19:                                               ; preds = %16
  store i32 7, ptr %3, align 4
  br label %33

20:                                               ; preds = %16
  store i32 8, ptr %3, align 4
  br label %33

21:                                               ; preds = %16
  br label %32

22:                                               ; preds = %2
  %23 = load i64, ptr %5, align 8, !tbaa !9
  switch i64 %23, label %26 [
    i64 255, label %24
    i64 448, label %25
  ]

24:                                               ; preds = %22
  store i32 9, ptr %3, align 4
  br label %33

25:                                               ; preds = %22
  store i32 13, ptr %3, align 4
  br label %33

26:                                               ; preds = %22
  br label %32

27:                                               ; preds = %2
  %28 = load i64, ptr %5, align 8, !tbaa !9
  switch i64 %28, label %31 [
    i64 192, label %29
    i64 256, label %30
  ]

29:                                               ; preds = %27
  store i32 10, ptr %3, align 4
  br label %33

30:                                               ; preds = %27
  store i32 12, ptr %3, align 4
  br label %33

31:                                               ; preds = %27
  br label %32

32:                                               ; preds = %2, %31, %26, %21, %15
  store i32 0, ptr %3, align 4
  br label %33

33:                                               ; preds = %32, %30, %29, %25, %24, %20, %19, %18, %14, %13, %12, %11, %10
  %34 = load i32, ptr %3, align 4
  ret i32 %34
}