; Function Attrs: mustprogress nofree norecurse nosync nounwind willreturn memory(none) uwtable
define hidden range(i32 0, 14) i32 @mbedtls_ecc_group_from_psa(i8 noundef zeroext %0, i64 noundef %1) local_unnamed_addr #0 {
  switch i8 %0, label %13 [
    i8 18, label %3
    i8 48, label %8
    i8 65, label %11
    i8 23, label %12
  ]

3:                                                ; preds = %2
  switch i64 %1, label %13 [
    i64 192, label %14
    i64 224, label %4
    i64 256, label %5
    i64 384, label %6
    i64 521, label %7
  ]

4:                                                ; preds = %3
  br label %14

5:                                                ; preds = %3
  br label %14

6:                                                ; preds = %3
  br label %14

7:                                                ; preds = %3
  br label %14

8:                                                ; preds = %2
  switch i64 %1, label %13 [
    i64 256, label %14
    i64 384, label %9
    i64 512, label %10
  ]

9:                                                ; preds = %8
  br label %14

10:                                               ; preds = %8
  br label %14

11:                                               ; preds = %2
  %switch.selectcmp = icmp eq i64 %1, 448
  %switch.select = select i1 %switch.selectcmp, i32 13, i32 0
  %switch.selectcmp6 = icmp eq i64 %1, 255
  %switch.select7 = select i1 %switch.selectcmp6, i32 9, i32 %switch.select
  br label %14

12:                                               ; preds = %2
  %switch.selectcmp8 = icmp eq i64 %1, 256
  %switch.select9 = select i1 %switch.selectcmp8, i32 12, i32 0
  %switch.selectcmp10 = icmp eq i64 %1, 192
  %switch.select11 = select i1 %switch.selectcmp10, i32 10, i32 %switch.select9
  br label %14

13:                                               ; preds = %8, %3, %2
  br label %14

14:                                               ; preds = %12, %11, %8, %3, %13, %10, %9, %7, %6, %5, %4
  %.0 = phi i32 [ 0, %13 ], [ 8, %10 ], [ 7, %9 ], [ 5, %7 ], [ 4, %6 ], [ 3, %5 ], [ 2, %4 ], [ 1, %3 ], [ 6, %8 ], [ %switch.select7, %11 ], [ %switch.select11, %12 ]
  ret i32 %.0
}